; Function Attrs: mustprogress uwtable
define hidden void @_ZN6google8protobuf8compiler3cpp13ExtensionNameB5cxx11EPKNS0_15FieldDescriptorE(ptr noalias sret(%"class.std::__cxx11::basic_string") align 8 %agg.result, ptr nocapture noundef readonly %d) local_unnamed_addr #4 personality ptr @__gxx_personality_v0 {
entry:
  %ref.tmp2.i = alloca %"class.absl::lts_20230802::log_internal::LogMessageFatal", align 8
  %ref.tmp = alloca %"class.absl::lts_20230802::AlphaNum", align 8
  %ref.tmp1 = alloca %"class.std::__cxx11::basic_string", align 8
  %ref.tmp2 = alloca %"class.absl::lts_20230802::AlphaNum", align 8
  %ref.tmp4 = alloca %"class.absl::lts_20230802::AlphaNum", align 8
  %ref.tmp5 = alloca %"class.std::__cxx11::basic_string", align 8
  call void @llvm.lifetime.start.p0(i64 16, ptr nonnull %ref.tmp2.i)
  %is_extension_.i = getelementptr inbounds i8, ptr %d, i64 1
  %bf.load.i = load i8, ptr %is_extension_.i, align 1
  %0 = and i8 %bf.load.i, 8
  %bf.cast.not.i = icmp eq i8 %0, 0
  br i1 %bf.cast.not.i, label %cond.false.i, label %_ZNK6google8protobuf15FieldDescriptor15extension_scopeEv.exit

cond.false.i:                                     ; preds = %entry
  call void @_ZN4absl12lts_2023080212log_internal15LogMessageFatalC1EPKciSt17basic_string_viewIcSt11char_traitsIcEE(ptr noundef nonnull align 8 dereferenceable(16) %ref.tmp2.i, ptr noundef nonnull @.str.148, i32 noundef 2643, i64 13, ptr nonnull @.str.149) #28
  call void @_ZN4absl12lts_2023080212log_internal15LogMessageFatalD1Ev(ptr noundef nonnull align 8 dereferenceable(16) %ref.tmp2.i) #29
  unreachable

_ZNK6google8protobuf15FieldDescriptor15extension_scopeEv.exit: ; preds = %entry
  %scope_.i = getelementptr inbounds i8, ptr %d, i64 40
  %1 = load ptr, ptr %scope_.i, align 8
  call void @llvm.lifetime.end.p0(i64 16, ptr nonnull %ref.tmp2.i)
  %tobool.not = icmp eq ptr %1, null
  br i1 %tobool.not, label %if.end, label %invoke.cont3

invoke.cont3:                                     ; preds = %_ZNK6google8protobuf15FieldDescriptor15extension_scopeEv.exit
  call void @_ZN6google8protobuf8compiler3cpp9ClassNameB5cxx11EPKNS0_10DescriptorE(ptr nonnull sret(%"class.std::__cxx11::basic_string") align 8 %ref.tmp1, ptr noundef nonnull %1)
  %call.i = call { i64, ptr } @_ZNKSt7__cxx1112basic_stringIcSt11char_traitsIcESaIcEEcvSt17basic_string_viewIcS2_EEv(ptr noundef nonnull align 8 dereferenceable(32) %ref.tmp1) #26
  %2 = extractvalue { i64, ptr } %call.i, 0
  store i64 %2, ptr %ref.tmp, align 8
  %3 = getelementptr inbounds i8, ptr %ref.tmp, i64 8
  %4 = extractvalue { i64, ptr } %call.i, 1
  store ptr %4, ptr %3, align 8
  store i64 2, ptr %ref.tmp2, align 8
  %5 = getelementptr inbounds i8, ptr %ref.tmp2, i64 8
  store ptr @.str.21, ptr %5, align 8
  %all_names_.i = getelementptr inbounds i8, ptr %d, i64 8
  %6 = load ptr, ptr %all_names_.i, align 8
  %call8 = call { i64, ptr } @_ZNKSt7__cxx1112basic_stringIcSt11char_traitsIcESaIcEEcvSt17basic_string_viewIcS2_EEv(ptr noundef nonnull align 8 dereferenceable(32) %6) #26
  %7 = extractvalue { i64, ptr } %call8, 0
  %8 = extractvalue { i64, ptr } %call8, 1
  invoke void @_ZN6google8protobuf8compiler3cpp14ResolveKeywordB5cxx11ESt17basic_string_viewIcSt11char_traitsIcEE(ptr nonnull sret(%"class.std::__cxx11::basic_string") align 8 %ref.tmp5, i64 %7, ptr %8)
          to label %invoke.cont9 unwind label %lpad

invoke.cont9:                                     ; preds = %invoke.cont3
  %call.i5 = call { i64, ptr } @_ZNKSt7__cxx1112basic_stringIcSt11char_traitsIcESaIcEEcvSt17basic_string_viewIcS2_EEv(ptr noundef nonnull align 8 dereferenceable(32) %ref.tmp5) #26
  %9 = extractvalue { i64, ptr } %call.i5, 0
  store i64 %9, ptr %ref.tmp4, align 8
  %10 = getelementptr inbounds i8, ptr %ref.tmp4, i64 8
  %11 = extractvalue { i64, ptr } %call.i5, 1
  store ptr %11, ptr %10, align 8
  invoke void @_ZN4absl12lts_202308026StrCatB5cxx11ERKNS0_8AlphaNumES3_S3_(ptr sret(%"class.std::__cxx11::basic_string") align 8 %agg.result, ptr noundef nonnull align 8 dereferenceable(48) %ref.tmp, ptr noundef nonnull align 8 dereferenceable(48) %ref.tmp2, ptr noundef nonnull align 8 dereferenceable(48) %ref.tmp4)
          to label %invoke.cont12 unwind label %lpad10

invoke.cont12:                                    ; preds = %invoke.cont9
  call void @_ZNSt7__cxx1112basic_stringIcSt11char_traitsIcESaIcEED1Ev(ptr noundef nonnull align 8 dereferenceable(32) %ref.tmp5) #26
  call void @_ZNSt7__cxx1112basic_stringIcSt11char_traitsIcESaIcEED1Ev(ptr noundef nonnull align 8 dereferenceable(32) %ref.tmp1) #26
  br label %return

lpad:                                             ; preds = %invoke.cont3
  %12 = landingpad { ptr, i32 }
          cleanup
  br label %ehcleanup

lpad10:                                           ; preds = %invoke.cont9
  %13 = landingpad { ptr, i32 }
          cleanup
  call void @_ZNSt7__cxx1112basic_stringIcSt11char_traitsIcESaIcEED1Ev(ptr noundef nonnull align 8 dereferenceable(32) %ref.tmp5) #26
  br label %ehcleanup

ehcleanup:                                        ; preds = %lpad10, %lpad
  %.pn = phi { ptr, i32 } [ %13, %lpad10 ], [ %12, %lpad ]
  call void @_ZNSt7__cxx1112basic_stringIcSt11char_traitsIcESaIcEED1Ev(ptr noundef nonnull align 8 dereferenceable(32) %ref.tmp1) #26
  resume { ptr, i32 } %.pn

if.end:                                           ; preds = %_ZNK6google8protobuf15FieldDescriptor15extension_scopeEv.exit
  %all_names_.i6 = getelementptr inbounds i8, ptr %d, i64 8
  %14 = load ptr, ptr %all_names_.i6, align 8
  %call15 = tail call { i64, ptr } @_ZNKSt7__cxx1112basic_stringIcSt11char_traitsIcESaIcEEcvSt17basic_string_viewIcS2_EEv(ptr noundef nonnull align 8 dereferenceable(32) %14) #26
  %15 = extractvalue { i64, ptr } %call15, 0
  %16 = extractvalue { i64, ptr } %call15, 1
  tail call void @_ZN6google8protobuf8compiler3cpp14ResolveKeywordB5cxx11ESt17basic_string_viewIcSt11char_traitsIcEE(ptr sret(%"class.std::__cxx11::basic_string") align 8 %agg.result, i64 %15, ptr %16)
  br label %return

return:                                           ; preds = %if.end, %invoke.cont12
  ret void
}